target datalayout = "e-m:e-p270:32:32-p271:32:32-p272:64:64-i64:64-i128:128-f80:128-n8:16:32:64-S128"
target triple = "x86_64-pc-linux-gnu"

%class.btSequentialImpulseConstraintSolver = type { %class.btConstraintSolver, %class.btAlignedObjectArray, %class.btAlignedObjectArray.0, %class.btAlignedObjectArray.0, %class.btAlignedObjectArray.0, %class.btAlignedObjectArray.0, %class.btAlignedObjectArray.2, %class.btAlignedObjectArray.2, %class.btAlignedObjectArray.2, %class.btAlignedObjectArray.4, i32, i32, %class.btAlignedObjectArray.2, ptr, ptr, ptr, i32, float, i64, %struct.btSolverAnalyticsData }
%class.btConstraintSolver = type { ptr }
%class.btAlignedObjectArray = type <{ [4 x i8], i32, i32, [4 x i8], ptr, i8, [7 x i8] }>
%class.btAlignedObjectArray.0 = type <{ [4 x i8], i32, i32, [4 x i8], ptr, i8, [7 x i8] }>
%class.btAlignedObjectArray.4 = type <{ [4 x i8], i32, i32, [4 x i8], ptr, i8, [7 x i8] }>
%class.btAlignedObjectArray.2 = type <{ [4 x i8], i32, i32, [4 x i8], ptr, i8, [7 x i8] }>
%struct.btSolverAnalyticsData = type { i32, i32, i32, i32, i32, double }
%class.btVector3 = type { [4 x float] }
%struct.btSolverConstraint = type { %class.btVector3, %class.btVector3, %class.btVector3, %class.btVector3, %class.btVector3, %class.btVector3, float, float, float, float, float, float, float, float, float, %union.anon.6, i32, i32, i32, i32 }
%union.anon.6 = type { ptr }
%struct.btContactSolverInfoData = type { float, float, float, float, float, i32, float, float, float, float, float, float, float, float, float, float, i32, float, float, float, float, float, i32, i32, i32, float, float, float, float, i8, i8, i32, i32 }

; Function Attrs: inlinehint mustprogress nounwind uwtable
define linkonce_odr dso_local noundef nonnull align 8 dereferenceable(160) ptr @_ZN20btAlignedObjectArrayI18btSolverConstraintEixEi(ptr noundef nonnull align 8 dereferenceable(25) %0, i32 noundef %1) #3 comdat align 2 {
  %3 = alloca ptr, align 8
  %4 = alloca i32, align 4
  store ptr %0, ptr %3, align 8, !tbaa !45
  store i32 %1, ptr %4, align 4, !tbaa !9
  %5 = load ptr, ptr %3, align 8
  %6 = getelementptr inbounds nuw %class.btAlignedObjectArray.0, ptr %5, i32 0, i32 4
  %7 = load ptr, ptr %6, align 8, !tbaa !120
  %8 = load i32, ptr %4, align 4, !tbaa !9
  %9 = sext i32 %8 to i64
  %10 = getelementptr inbounds %struct.btSolverConstraint, ptr %7, i64 %9
  ret ptr %10
}

; Function Attrs: mustprogress uwtable
define dso_local void @_ZN35btSequentialImpulseConstraintSolver28setFrictionConstraintImpulseER18btSolverConstraintiiR15btManifoldPointRK19btContactSolverInfo(ptr noundef nonnull align 8 dereferenceable(408) %0, ptr noundef nonnull align 8 dereferenceable(160) %1, i32 noundef %2, i32 noundef %3, ptr noundef nonnull align 8 dereferenceable(204) %4, ptr noundef nonnull align 4 dereferenceable(128) %5) #2 align 2 {
  %7 = alloca ptr, align 8
  %8 = alloca ptr, align 8
  %9 = alloca i32, align 4
  %10 = alloca i32, align 4
  %11 = alloca ptr, align 8
  %12 = alloca ptr, align 8
  %13 = alloca ptr, align 8
  %14 = alloca ptr, align 8
  store ptr %0, ptr %7, align 8, !tbaa !12
  store ptr %1, ptr %8, align 8, !tbaa !16
  store i32 %2, ptr %9, align 4, !tbaa !9
  store i32 %3, ptr %10, align 4, !tbaa !9
  store ptr %4, ptr %11, align 8, !tbaa !104
  store ptr %5, ptr %12, align 8, !tbaa !106
  %15 = load ptr, ptr %7, align 8
  call void @llvm.lifetime.start.p0(i64 8, ptr %13) #15
  %16 = getelementptr inbounds nuw %class.btSequentialImpulseConstraintSolver, ptr %15, i32 0, i32 4
  %17 = load ptr, ptr %8, align 8, !tbaa !16
  %18 = getelementptr inbounds nuw %struct.btSolverConstraint, ptr %17, i32 0, i32 17
  %19 = load i32, ptr %18, align 4, !tbaa !118
  %20 = call noundef nonnull align 8 dereferenceable(160) ptr @_ZN20btAlignedObjectArrayI18btSolverConstraintEixEi(ptr noundef nonnull align 8 dereferenceable(25) %16, i32 noundef %19)
  store ptr %20, ptr %13, align 8, !tbaa !16
  %21 = load ptr, ptr %13, align 8, !tbaa !16
  %22 = getelementptr inbounds nuw %struct.btSolverConstraint, ptr %21, i32 0, i32 7
  store float 0.000000e+00, ptr %22, align 4, !tbaa !64
  call void @llvm.lifetime.end.p0(i64 8, ptr %13) #15
  %23 = load ptr, ptr %12, align 8, !tbaa !106
  %24 = getelementptr inbounds nuw %struct.btContactSolverInfoData, ptr %23, i32 0, i32 22
  %25 = load i32, ptr %24, align 4, !tbaa !131
  %26 = and i32 %25, 16
  %27 = icmp ne i32 %26, 0
  br i1 %27, label %28, label %37

28:                                               ; preds = %6
  call void @llvm.lifetime.start.p0(i64 8, ptr %14) #15
  %29 = getelementptr inbounds nuw %class.btSequentialImpulseConstraintSolver, ptr %15, i32 0, i32 4
  %30 = load ptr, ptr %8, align 8, !tbaa !16
  %31 = getelementptr inbounds nuw %struct.btSolverConstraint, ptr %30, i32 0, i32 17
  %32 = load i32, ptr %31, align 4, !tbaa !118
  %33 = add nsw i32 %32, 1
  %34 = call noundef nonnull align 8 dereferenceable(160) ptr @_ZN20btAlignedObjectArrayI18btSolverConstraintEixEi(ptr noundef nonnull align 8 dereferenceable(25) %29, i32 noundef %33)
  store ptr %34, ptr %14, align 8, !tbaa !16
  %35 = load ptr, ptr %14, align 8, !tbaa !16
  %36 = getelementptr inbounds nuw %struct.btSolverConstraint, ptr %35, i32 0, i32 7
  store float 0.000000e+00, ptr %36, align 4, !tbaa !64
  call void @llvm.lifetime.end.p0(i64 8, ptr %14) #15
  br label %37

37:                                               ; preds = %28, %6
  ret void
}