; Function Attrs: mustprogress nofree norecurse nosync nounwind willreturn memory(write, argmem: readwrite, inaccessiblemem: none) uwtable
define dso_local void @_ZN35btSequentialImpulseConstraintSolver28setFrictionConstraintImpulseER18btSolverConstraintiiR15btManifoldPointRK19btContactSolverInfo(ptr noundef nonnull readonly align 8 captures(none) dereferenceable(408) %0, ptr noundef nonnull readonly align 8 captures(none) dereferenceable(160) %1, i32 noundef %2, i32 noundef %3, ptr noundef nonnull readnone align 8 captures(none) dereferenceable(204) %4, ptr noundef nonnull readonly align 4 captures(none) dereferenceable(128) %5) local_unnamed_addr #13 align 2 {
  %7 = getelementptr inbounds nuw i8, ptr %1, i64 148
  %8 = load i32, ptr %7, align 4, !tbaa !101
  %9 = getelementptr inbounds nuw i8, ptr %0, i64 120
  %10 = load ptr, ptr %9, align 8, !tbaa !36
  %11 = sext i32 %8 to i64
  %12 = getelementptr inbounds %struct.btSolverConstraint, ptr %10, i64 %11, i32 7
  store float 0.000000e+00, ptr %12, align 4, !tbaa !57
  %13 = getelementptr inbounds nuw i8, ptr %5, i64 88
  %14 = load i32, ptr %13, align 4, !tbaa !113
  %15 = and i32 %14, 16
  %.not = icmp eq i32 %15, 0
  br i1 %.not, label %19, label %16

16:                                               ; preds = %6
  %17 = getelementptr %struct.btSolverConstraint, ptr %10, i64 %11
  %18 = getelementptr i8, ptr %17, i64 260
  store float 0.000000e+00, ptr %18, align 4, !tbaa !57
  br label %19

19:                                               ; preds = %16, %6
  ret void
}